
exe:     file format elf64-x86-64


Disassembly of section .init:

0000000000400748 <_init>:
  400748:	48 83 ec 08          	sub    $0x8,%rsp
  40074c:	48 8b 05 a5 18 20 00 	mov    0x2018a5(%rip),%rax        # 601ff8 <_DYNAMIC+0x1e0>
  400753:	48 85 c0             	test   %rax,%rax
  400756:	74 05                	je     40075d <_init+0x15>
  400758:	e8 93 00 00 00       	callq  4007f0 <__gmon_start__@plt>
  40075d:	48 83 c4 08          	add    $0x8,%rsp
  400761:	c3                   	retq   

Disassembly of section .plt:

0000000000400770 <free@plt-0x10>:
  400770:	ff 35 92 18 20 00    	pushq  0x201892(%rip)        # 602008 <_GLOBAL_OFFSET_TABLE_+0x8>
  400776:	ff 25 94 18 20 00    	jmpq   *0x201894(%rip)        # 602010 <_GLOBAL_OFFSET_TABLE_+0x10>
  40077c:	0f 1f 40 00          	nopl   0x0(%rax)

0000000000400780 <free@plt>:
  400780:	ff 25 92 18 20 00    	jmpq   *0x201892(%rip)        # 602018 <_GLOBAL_OFFSET_TABLE_+0x18>
  400786:	68 00 00 00 00       	pushq  $0x0
  40078b:	e9 e0 ff ff ff       	jmpq   400770 <_init+0x28>

0000000000400790 <putchar@plt>:
  400790:	ff 25 8a 18 20 00    	jmpq   *0x20188a(%rip)        # 602020 <_GLOBAL_OFFSET_TABLE_+0x20>
  400796:	68 01 00 00 00       	pushq  $0x1
  40079b:	e9 d0 ff ff ff       	jmpq   400770 <_init+0x28>

00000000004007a0 <pthread_create@plt>:
  4007a0:	ff 25 82 18 20 00    	jmpq   *0x201882(%rip)        # 602028 <_GLOBAL_OFFSET_TABLE_+0x28>
  4007a6:	68 02 00 00 00       	pushq  $0x2
  4007ab:	e9 c0 ff ff ff       	jmpq   400770 <_init+0x28>

00000000004007b0 <puts@plt>:
  4007b0:	ff 25 7a 18 20 00    	jmpq   *0x20187a(%rip)        # 602030 <_GLOBAL_OFFSET_TABLE_+0x30>
  4007b6:	68 03 00 00 00       	pushq  $0x3
  4007bb:	e9 b0 ff ff ff       	jmpq   400770 <_init+0x28>

00000000004007c0 <clock@plt>:
  4007c0:	ff 25 72 18 20 00    	jmpq   *0x201872(%rip)        # 602038 <_GLOBAL_OFFSET_TABLE_+0x38>
  4007c6:	68 04 00 00 00       	pushq  $0x4
  4007cb:	e9 a0 ff ff ff       	jmpq   400770 <_init+0x28>

00000000004007d0 <printf@plt>:
  4007d0:	ff 25 6a 18 20 00    	jmpq   *0x20186a(%rip)        # 602040 <_GLOBAL_OFFSET_TABLE_+0x40>
  4007d6:	68 05 00 00 00       	pushq  $0x5
  4007db:	e9 90 ff ff ff       	jmpq   400770 <_init+0x28>

00000000004007e0 <__libc_start_main@plt>:
  4007e0:	ff 25 62 18 20 00    	jmpq   *0x201862(%rip)        # 602048 <_GLOBAL_OFFSET_TABLE_+0x48>
  4007e6:	68 06 00 00 00       	pushq  $0x6
  4007eb:	e9 80 ff ff ff       	jmpq   400770 <_init+0x28>

00000000004007f0 <__gmon_start__@plt>:
  4007f0:	ff 25 5a 18 20 00    	jmpq   *0x20185a(%rip)        # 602050 <_GLOBAL_OFFSET_TABLE_+0x50>
  4007f6:	68 07 00 00 00       	pushq  $0x7
  4007fb:	e9 70 ff ff ff       	jmpq   400770 <_init+0x28>

0000000000400800 <pthread_mutex_unlock@plt>:
  400800:	ff 25 52 18 20 00    	jmpq   *0x201852(%rip)        # 602058 <_GLOBAL_OFFSET_TABLE_+0x58>
  400806:	68 08 00 00 00       	pushq  $0x8
  40080b:	e9 60 ff ff ff       	jmpq   400770 <_init+0x28>

0000000000400810 <malloc@plt>:
  400810:	ff 25 4a 18 20 00    	jmpq   *0x20184a(%rip)        # 602060 <_GLOBAL_OFFSET_TABLE_+0x60>
  400816:	68 09 00 00 00       	pushq  $0x9
  40081b:	e9 50 ff ff ff       	jmpq   400770 <_init+0x28>

0000000000400820 <pthread_join@plt>:
  400820:	ff 25 42 18 20 00    	jmpq   *0x201842(%rip)        # 602068 <_GLOBAL_OFFSET_TABLE_+0x68>
  400826:	68 0a 00 00 00       	pushq  $0xa
  40082b:	e9 40 ff ff ff       	jmpq   400770 <_init+0x28>

0000000000400830 <exit@plt>:
  400830:	ff 25 3a 18 20 00    	jmpq   *0x20183a(%rip)        # 602070 <_GLOBAL_OFFSET_TABLE_+0x70>
  400836:	68 0b 00 00 00       	pushq  $0xb
  40083b:	e9 30 ff ff ff       	jmpq   400770 <_init+0x28>

0000000000400840 <pthread_mutex_init@plt>:
  400840:	ff 25 32 18 20 00    	jmpq   *0x201832(%rip)        # 602078 <_GLOBAL_OFFSET_TABLE_+0x78>
  400846:	68 0c 00 00 00       	pushq  $0xc
  40084b:	e9 20 ff ff ff       	jmpq   400770 <_init+0x28>

0000000000400850 <pthread_mutex_lock@plt>:
  400850:	ff 25 2a 18 20 00    	jmpq   *0x20182a(%rip)        # 602080 <_GLOBAL_OFFSET_TABLE_+0x80>
  400856:	68 0d 00 00 00       	pushq  $0xd
  40085b:	e9 10 ff ff ff       	jmpq   400770 <_init+0x28>

Disassembly of section .text:

0000000000400860 <_start>:
  400860:	31 ed                	xor    %ebp,%ebp
  400862:	49 89 d1             	mov    %rdx,%r9
  400865:	5e                   	pop    %rsi
  400866:	48 89 e2             	mov    %rsp,%rdx
  400869:	48 83 e4 f0          	and    $0xfffffffffffffff0,%rsp
  40086d:	50                   	push   %rax
  40086e:	54                   	push   %rsp
  40086f:	49 c7 c0 f0 0d 40 00 	mov    $0x400df0,%r8
  400876:	48 c7 c1 80 0d 40 00 	mov    $0x400d80,%rcx
  40087d:	48 c7 c7 cb 09 40 00 	mov    $0x4009cb,%rdi
  400884:	e8 57 ff ff ff       	callq  4007e0 <__libc_start_main@plt>
  400889:	f4                   	hlt    
  40088a:	66 0f 1f 44 00 00    	nopw   0x0(%rax,%rax,1)

0000000000400890 <deregister_tm_clones>:
  400890:	b8 a7 20 60 00       	mov    $0x6020a7,%eax
  400895:	55                   	push   %rbp
  400896:	48 2d a0 20 60 00    	sub    $0x6020a0,%rax
  40089c:	48 83 f8 0e          	cmp    $0xe,%rax
  4008a0:	48 89 e5             	mov    %rsp,%rbp
  4008a3:	77 02                	ja     4008a7 <deregister_tm_clones+0x17>
  4008a5:	5d                   	pop    %rbp
  4008a6:	c3                   	retq   
  4008a7:	b8 00 00 00 00       	mov    $0x0,%eax
  4008ac:	48 85 c0             	test   %rax,%rax
  4008af:	74 f4                	je     4008a5 <deregister_tm_clones+0x15>
  4008b1:	5d                   	pop    %rbp
  4008b2:	bf a0 20 60 00       	mov    $0x6020a0,%edi
  4008b7:	ff e0                	jmpq   *%rax
  4008b9:	0f 1f 80 00 00 00 00 	nopl   0x0(%rax)

00000000004008c0 <register_tm_clones>:
  4008c0:	b8 a0 20 60 00       	mov    $0x6020a0,%eax
  4008c5:	55                   	push   %rbp
  4008c6:	48 2d a0 20 60 00    	sub    $0x6020a0,%rax
  4008cc:	48 c1 f8 03          	sar    $0x3,%rax
  4008d0:	48 89 e5             	mov    %rsp,%rbp
  4008d3:	48 89 c2             	mov    %rax,%rdx
  4008d6:	48 c1 ea 3f          	shr    $0x3f,%rdx
  4008da:	48 01 d0             	add    %rdx,%rax
  4008dd:	48 d1 f8             	sar    %rax
  4008e0:	75 02                	jne    4008e4 <register_tm_clones+0x24>
  4008e2:	5d                   	pop    %rbp
  4008e3:	c3                   	retq   
  4008e4:	ba 00 00 00 00       	mov    $0x0,%edx
  4008e9:	48 85 d2             	test   %rdx,%rdx
  4008ec:	74 f4                	je     4008e2 <register_tm_clones+0x22>
  4008ee:	5d                   	pop    %rbp
  4008ef:	48 89 c6             	mov    %rax,%rsi
  4008f2:	bf a0 20 60 00       	mov    $0x6020a0,%edi
  4008f7:	ff e2                	jmpq   *%rdx
  4008f9:	0f 1f 80 00 00 00 00 	nopl   0x0(%rax)

0000000000400900 <__do_global_dtors_aux>:
  400900:	80 3d 99 17 20 00 00 	cmpb   $0x0,0x201799(%rip)        # 6020a0 <__TMC_END__>
  400907:	75 11                	jne    40091a <__do_global_dtors_aux+0x1a>
  400909:	55                   	push   %rbp
  40090a:	48 89 e5             	mov    %rsp,%rbp
  40090d:	e8 7e ff ff ff       	callq  400890 <deregister_tm_clones>
  400912:	5d                   	pop    %rbp
  400913:	c6 05 86 17 20 00 01 	movb   $0x1,0x201786(%rip)        # 6020a0 <__TMC_END__>
  40091a:	f3 c3                	repz retq 
  40091c:	0f 1f 40 00          	nopl   0x0(%rax)

0000000000400920 <frame_dummy>:
  400920:	48 83 3d e8 14 20 00 	cmpq   $0x0,0x2014e8(%rip)        # 601e10 <__JCR_END__>
  400927:	00 
  400928:	74 1e                	je     400948 <frame_dummy+0x28>
  40092a:	b8 00 00 00 00       	mov    $0x0,%eax
  40092f:	48 85 c0             	test   %rax,%rax
  400932:	74 14                	je     400948 <frame_dummy+0x28>
  400934:	55                   	push   %rbp
  400935:	bf 10 1e 60 00       	mov    $0x601e10,%edi
  40093a:	48 89 e5             	mov    %rsp,%rbp
  40093d:	ff d0                	callq  *%rax
  40093f:	5d                   	pop    %rbp
  400940:	e9 7b ff ff ff       	jmpq   4008c0 <register_tm_clones>
  400945:	0f 1f 00             	nopl   (%rax)
  400948:	e9 73 ff ff ff       	jmpq   4008c0 <register_tm_clones>

000000000040094d <Function_A>:
  40094d:	55                   	push   %rbp
  40094e:	48 89 e5             	mov    %rsp,%rbp
  400951:	48 83 ec 10          	sub    $0x10,%rsp
  400955:	48 89 7d f8          	mov    %rdi,-0x8(%rbp)
  400959:	eb 24                	jmp    40097f <Function_A+0x32>
  40095b:	48 8b 45 f8          	mov    -0x8(%rbp),%rax
  40095f:	89 c6                	mov    %eax,%esi
  400961:	bf 08 0e 40 00       	mov    $0x400e08,%edi
  400966:	b8 00 00 00 00       	mov    $0x0,%eax
  40096b:	e8 60 fe ff ff       	callq  4007d0 <printf@plt>
  400970:	be 0c 0e 40 00       	mov    $0x400e0c,%esi
  400975:	bf c0 20 60 00       	mov    $0x6020c0,%edi
  40097a:	e8 f5 02 00 00       	callq  400c74 <Enqueue>
  40097f:	8b 05 13 17 20 00    	mov    0x201713(%rip),%eax        # 602098 <T_A>
  400985:	8d 50 ff             	lea    -0x1(%rax),%edx
  400988:	89 15 0a 17 20 00    	mov    %edx,0x20170a(%rip)        # 602098 <T_A>
  40098e:	85 c0                	test   %eax,%eax
  400990:	7f c9                	jg     40095b <Function_A+0xe>
  400992:	b8 00 00 00 00       	mov    $0x0,%eax
  400997:	c9                   	leaveq 
  400998:	c3                   	retq   

0000000000400999 <Function_B>:
  400999:	55                   	push   %rbp
  40099a:	48 89 e5             	mov    %rsp,%rbp
  40099d:	48 83 ec 10          	sub    $0x10,%rsp
  4009a1:	48 89 7d f8          	mov    %rdi,-0x8(%rbp)
  4009a5:	eb 0a                	jmp    4009b1 <Function_B+0x18>
  4009a7:	bf c0 20 60 00       	mov    $0x6020c0,%edi
  4009ac:	e8 36 03 00 00       	callq  400ce7 <Dequeue>
  4009b1:	8b 05 e5 16 20 00    	mov    0x2016e5(%rip),%eax        # 60209c <T_B>
  4009b7:	8d 50 ff             	lea    -0x1(%rax),%edx
  4009ba:	89 15 dc 16 20 00    	mov    %edx,0x2016dc(%rip)        # 60209c <T_B>
  4009c0:	85 c0                	test   %eax,%eax
  4009c2:	7f e3                	jg     4009a7 <Function_B+0xe>
  4009c4:	b8 00 00 00 00       	mov    $0x0,%eax
  4009c9:	c9                   	leaveq 
  4009ca:	c3                   	retq   

00000000004009cb <main>:
  4009cb:	55                   	push   %rbp
  4009cc:	48 89 e5             	mov    %rsp,%rbp
  4009cf:	48 81 ec 60 01 00 00 	sub    $0x160,%rsp
  4009d6:	c7 85 ac fe ff ff 01 	movl   $0x1,-0x154(%rbp)
  4009dd:	00 00 00 
  4009e0:	c7 85 a8 fe ff ff 00 	movl   $0x0,-0x158(%rbp)
  4009e7:	00 00 00 
  4009ea:	bf c0 20 60 00       	mov    $0x6020c0,%edi
  4009ef:	e8 61 01 00 00       	callq  400b55 <InitQueue>
  4009f4:	89 85 ac fe ff ff    	mov    %eax,-0x154(%rbp)
  4009fa:	e8 c1 fd ff ff       	callq  4007c0 <clock@plt>
  4009ff:	48 89 85 b0 fe ff ff 	mov    %rax,-0x150(%rbp)
  400a06:	83 bd ac fe ff ff 00 	cmpl   $0x0,-0x154(%rbp)
  400a0d:	75 f7                	jne    400a06 <main+0x3b>
  400a0f:	c7 85 a8 fe ff ff 00 	movl   $0x0,-0x158(%rbp)
  400a16:	00 00 00 
  400a19:	e9 83 00 00 00       	jmpq   400aa1 <main+0xd6>
  400a1e:	8b 85 a8 fe ff ff    	mov    -0x158(%rbp),%eax
  400a24:	48 98                	cltq   
  400a26:	48 8d 95 c0 fe ff ff 	lea    -0x140(%rbp),%rdx
  400a2d:	8b 8d a8 fe ff ff    	mov    -0x158(%rbp),%ecx
  400a33:	48 63 c9             	movslq %ecx,%rcx
  400a36:	48 c1 e1 03          	shl    $0x3,%rcx
  400a3a:	48 8d 3c 0a          	lea    (%rdx,%rcx,1),%rdi
  400a3e:	48 89 c1             	mov    %rax,%rcx
  400a41:	ba 4d 09 40 00       	mov    $0x40094d,%edx
  400a46:	be 00 00 00 00       	mov    $0x0,%esi
  400a4b:	e8 50 fd ff ff       	callq  4007a0 <pthread_create@plt>
  400a50:	85 c0                	test   %eax,%eax
  400a52:	74 0a                	je     400a5e <main+0x93>
  400a54:	bf 01 00 00 00       	mov    $0x1,%edi
  400a59:	e8 d2 fd ff ff       	callq  400830 <exit@plt>
  400a5e:	48 8d 85 60 ff ff ff 	lea    -0xa0(%rbp),%rax
  400a65:	8b 95 a8 fe ff ff    	mov    -0x158(%rbp),%edx
  400a6b:	48 63 d2             	movslq %edx,%rdx
  400a6e:	48 c1 e2 03          	shl    $0x3,%rdx
  400a72:	48 01 d0             	add    %rdx,%rax
  400a75:	b9 00 00 00 00       	mov    $0x0,%ecx
  400a7a:	ba 99 09 40 00       	mov    $0x400999,%edx
  400a7f:	be 00 00 00 00       	mov    $0x0,%esi
  400a84:	48 89 c7             	mov    %rax,%rdi
  400a87:	e8 14 fd ff ff       	callq  4007a0 <pthread_create@plt>
  400a8c:	85 c0                	test   %eax,%eax
  400a8e:	74 0a                	je     400a9a <main+0xcf>
  400a90:	bf 01 00 00 00       	mov    $0x1,%edi
  400a95:	e8 96 fd ff ff       	callq  400830 <exit@plt>
  400a9a:	83 85 a8 fe ff ff 01 	addl   $0x1,-0x158(%rbp)
  400aa1:	83 bd a8 fe ff ff 13 	cmpl   $0x13,-0x158(%rbp)
  400aa8:	0f 8e 70 ff ff ff    	jle    400a1e <main+0x53>
  400aae:	c7 85 a8 fe ff ff 00 	movl   $0x0,-0x158(%rbp)
  400ab5:	00 00 00 
  400ab8:	eb 41                	jmp    400afb <main+0x130>
  400aba:	8b 85 a8 fe ff ff    	mov    -0x158(%rbp),%eax
  400ac0:	48 98                	cltq   
  400ac2:	48 8b 84 c5 c0 fe ff 	mov    -0x140(%rbp,%rax,8),%rax
  400ac9:	ff 
  400aca:	be 00 00 00 00       	mov    $0x0,%esi
  400acf:	48 89 c7             	mov    %rax,%rdi
  400ad2:	e8 49 fd ff ff       	callq  400820 <pthread_join@plt>
  400ad7:	8b 85 a8 fe ff ff    	mov    -0x158(%rbp),%eax
  400add:	48 98                	cltq   
  400adf:	48 8b 84 c5 c0 fe ff 	mov    -0x140(%rbp,%rax,8),%rax
  400ae6:	ff 
  400ae7:	be 00 00 00 00       	mov    $0x0,%esi
  400aec:	48 89 c7             	mov    %rax,%rdi
  400aef:	e8 2c fd ff ff       	callq  400820 <pthread_join@plt>
  400af4:	83 85 a8 fe ff ff 01 	addl   $0x1,-0x158(%rbp)
  400afb:	83 bd a8 fe ff ff 13 	cmpl   $0x13,-0x158(%rbp)
  400b02:	7e b6                	jle    400aba <main+0xef>
  400b04:	e8 b7 fc ff ff       	callq  4007c0 <clock@plt>
  400b09:	48 89 85 b8 fe ff ff 	mov    %rax,-0x148(%rbp)
  400b10:	48 8b 85 b0 fe ff ff 	mov    -0x150(%rbp),%rax
  400b17:	48 8b 95 b8 fe ff ff 	mov    -0x148(%rbp),%rdx
  400b1e:	48 29 c2             	sub    %rax,%rdx
  400b21:	48 89 d0             	mov    %rdx,%rax
  400b24:	f2 48 0f 2a c0       	cvtsi2sd %rax,%xmm0
  400b29:	f2 0f 10 0d ef 02 00 	movsd  0x2ef(%rip),%xmm1        # 400e20 <_IO_stdin_used+0x20>
  400b30:	00 
  400b31:	f2 0f 5e c1          	divsd  %xmm1,%xmm0
  400b35:	bf 11 0e 40 00       	mov    $0x400e11,%edi
  400b3a:	b8 01 00 00 00       	mov    $0x1,%eax
  400b3f:	e8 8c fc ff ff       	callq  4007d0 <printf@plt>
  400b44:	bf c0 20 60 00       	mov    $0x6020c0,%edi
  400b49:	e8 71 00 00 00       	callq  400bbf <FreeQueue>
  400b4e:	b8 00 00 00 00       	mov    $0x0,%eax
  400b53:	c9                   	leaveq 
  400b54:	c3                   	retq   

0000000000400b55 <InitQueue>:
  400b55:	55                   	push   %rbp
  400b56:	48 89 e5             	mov    %rsp,%rbp
  400b59:	48 83 ec 10          	sub    $0x10,%rsp
  400b5d:	48 89 7d f8          	mov    %rdi,-0x8(%rbp)
  400b61:	bf 10 00 00 00       	mov    $0x10,%edi
  400b66:	e8 a5 fc ff ff       	callq  400810 <malloc@plt>
  400b6b:	48 89 c2             	mov    %rax,%rdx
  400b6e:	48 8b 45 f8          	mov    -0x8(%rbp),%rax
  400b72:	48 89 10             	mov    %rdx,(%rax)
  400b75:	48 8b 45 f8          	mov    -0x8(%rbp),%rax
  400b79:	48 8b 10             	mov    (%rax),%rdx
  400b7c:	48 8b 45 f8          	mov    -0x8(%rbp),%rax
  400b80:	48 89 50 08          	mov    %rdx,0x8(%rax)
  400b84:	48 8b 45 f8          	mov    -0x8(%rbp),%rax
  400b88:	48 8b 50 08          	mov    0x8(%rax),%rdx
  400b8c:	48 8b 45 f8          	mov    -0x8(%rbp),%rax
  400b90:	48 8b 00             	mov    (%rax),%rax
  400b93:	48 c7 40 08 00 00 00 	movq   $0x0,0x8(%rax)
  400b9a:	00 
  400b9b:	48 8b 40 08          	mov    0x8(%rax),%rax
  400b9f:	48 89 42 08          	mov    %rax,0x8(%rdx)
  400ba3:	48 8b 45 f8          	mov    -0x8(%rbp),%rax
  400ba7:	48 83 c0 10          	add    $0x10,%rax
  400bab:	be 00 00 00 00       	mov    $0x0,%esi
  400bb0:	48 89 c7             	mov    %rax,%rdi
  400bb3:	e8 88 fc ff ff       	callq  400840 <pthread_mutex_init@plt>
  400bb8:	b8 00 00 00 00       	mov    $0x0,%eax
  400bbd:	c9                   	leaveq 
  400bbe:	c3                   	retq   

0000000000400bbf <FreeQueue>:
  400bbf:	55                   	push   %rbp
  400bc0:	48 89 e5             	mov    %rsp,%rbp
  400bc3:	48 83 ec 20          	sub    $0x20,%rsp
  400bc7:	48 89 7d e8          	mov    %rdi,-0x18(%rbp)
  400bcb:	48 8b 45 e8          	mov    -0x18(%rbp),%rax
  400bcf:	48 8b 00             	mov    (%rax),%rax
  400bd2:	48 8b 40 08          	mov    0x8(%rax),%rax
  400bd6:	48 89 45 f8          	mov    %rax,-0x8(%rbp)
  400bda:	eb 18                	jmp    400bf4 <FreeQueue+0x35>
  400bdc:	48 8b 45 f8          	mov    -0x8(%rbp),%rax
  400be0:	48 8b 40 08          	mov    0x8(%rax),%rax
  400be4:	48 89 45 f8          	mov    %rax,-0x8(%rbp)
  400be8:	48 8b 45 f8          	mov    -0x8(%rbp),%rax
  400bec:	48 89 c7             	mov    %rax,%rdi
  400bef:	e8 8c fb ff ff       	callq  400780 <free@plt>
  400bf4:	48 83 7d f8 00       	cmpq   $0x0,-0x8(%rbp)
  400bf9:	75 e1                	jne    400bdc <FreeQueue+0x1d>
  400bfb:	c9                   	leaveq 
  400bfc:	c3                   	retq   

0000000000400bfd <TrackQueue>:
  400bfd:	55                   	push   %rbp
  400bfe:	48 89 e5             	mov    %rsp,%rbp
  400c01:	48 83 ec 20          	sub    $0x20,%rsp
  400c05:	48 89 7d e8          	mov    %rdi,-0x18(%rbp)
  400c09:	48 8b 45 e8          	mov    -0x18(%rbp),%rax
  400c0d:	48 8b 00             	mov    (%rax),%rax
  400c10:	48 89 45 f8          	mov    %rax,-0x8(%rbp)
  400c14:	c7 45 f4 00 00 00 00 	movl   $0x0,-0xc(%rbp)
  400c1b:	eb 38                	jmp    400c55 <TrackQueue+0x58>
  400c1d:	48 8b 45 f8          	mov    -0x8(%rbp),%rax
  400c21:	48 8b 00             	mov    (%rax),%rax
  400c24:	48 89 c6             	mov    %rax,%rsi
  400c27:	bf 28 0e 40 00       	mov    $0x400e28,%edi
  400c2c:	b8 00 00 00 00       	mov    $0x0,%eax
  400c31:	e8 9a fb ff ff       	callq  4007d0 <printf@plt>
  400c36:	8b 45 f4             	mov    -0xc(%rbp),%eax
  400c39:	8d 50 01             	lea    0x1(%rax),%edx
  400c3c:	89 55 f4             	mov    %edx,-0xc(%rbp)
  400c3f:	83 f8 09             	cmp    $0x9,%eax
  400c42:	7e 11                	jle    400c55 <TrackQueue+0x58>
  400c44:	bf 0a 00 00 00       	mov    $0xa,%edi
  400c49:	e8 42 fb ff ff       	callq  400790 <putchar@plt>
  400c4e:	c7 45 f4 00 00 00 00 	movl   $0x0,-0xc(%rbp)
  400c55:	48 8b 45 f8          	mov    -0x8(%rbp),%rax
  400c59:	48 8b 40 08          	mov    0x8(%rax),%rax
  400c5d:	48 89 45 f8          	mov    %rax,-0x8(%rbp)
  400c61:	48 83 7d f8 00       	cmpq   $0x0,-0x8(%rbp)
  400c66:	75 b5                	jne    400c1d <TrackQueue+0x20>
  400c68:	bf 34 0e 40 00       	mov    $0x400e34,%edi
  400c6d:	e8 3e fb ff ff       	callq  4007b0 <puts@plt>
  400c72:	c9                   	leaveq 
  400c73:	c3                   	retq   

0000000000400c74 <Enqueue>:
  400c74:	55                   	push   %rbp
  400c75:	48 89 e5             	mov    %rsp,%rbp
  400c78:	48 83 ec 20          	sub    $0x20,%rsp
  400c7c:	48 89 7d e8          	mov    %rdi,-0x18(%rbp)
  400c80:	48 89 75 e0          	mov    %rsi,-0x20(%rbp)
  400c84:	bf 10 00 00 00       	mov    $0x10,%edi
  400c89:	e8 82 fb ff ff       	callq  400810 <malloc@plt>
  400c8e:	48 89 45 f8          	mov    %rax,-0x8(%rbp)
  400c92:	48 8b 45 f8          	mov    -0x8(%rbp),%rax
  400c96:	48 8b 55 e0          	mov    -0x20(%rbp),%rdx
  400c9a:	48 89 10             	mov    %rdx,(%rax)
  400c9d:	48 8b 45 f8          	mov    -0x8(%rbp),%rax
  400ca1:	48 c7 40 08 00 00 00 	movq   $0x0,0x8(%rax)
  400ca8:	00 
  400ca9:	48 8b 45 e8          	mov    -0x18(%rbp),%rax
  400cad:	48 83 c0 10          	add    $0x10,%rax
  400cb1:	48 89 c7             	mov    %rax,%rdi
  400cb4:	e8 97 fb ff ff       	callq  400850 <pthread_mutex_lock@plt>
  400cb9:	48 8b 45 e8          	mov    -0x18(%rbp),%rax
  400cbd:	48 8b 40 08          	mov    0x8(%rax),%rax
  400cc1:	48 8b 55 f8          	mov    -0x8(%rbp),%rdx
  400cc5:	48 89 50 08          	mov    %rdx,0x8(%rax)
  400cc9:	48 8b 45 e8          	mov    -0x18(%rbp),%rax
  400ccd:	48 8b 55 f8          	mov    -0x8(%rbp),%rdx
  400cd1:	48 89 50 08          	mov    %rdx,0x8(%rax)
  400cd5:	48 8b 45 e8          	mov    -0x18(%rbp),%rax
  400cd9:	48 83 c0 10          	add    $0x10,%rax
  400cdd:	48 89 c7             	mov    %rax,%rdi
  400ce0:	e8 1b fb ff ff       	callq  400800 <pthread_mutex_unlock@plt>
  400ce5:	c9                   	leaveq 
  400ce6:	c3                   	retq   

0000000000400ce7 <Dequeue>:
  400ce7:	55                   	push   %rbp
  400ce8:	48 89 e5             	mov    %rsp,%rbp
  400ceb:	48 83 ec 20          	sub    $0x20,%rsp
  400cef:	48 89 7d e8          	mov    %rdi,-0x18(%rbp)
  400cf3:	48 c7 45 f0 3f 0e 40 	movq   $0x400e3f,-0x10(%rbp)
  400cfa:	00 
  400cfb:	48 8b 45 e8          	mov    -0x18(%rbp),%rax
  400cff:	48 83 c0 10          	add    $0x10,%rax
  400d03:	48 89 c7             	mov    %rax,%rdi
  400d06:	e8 45 fb ff ff       	callq  400850 <pthread_mutex_lock@plt>
  400d0b:	48 8b 45 e8          	mov    -0x18(%rbp),%rax
  400d0f:	48 8b 00             	mov    (%rax),%rax
  400d12:	48 8b 40 08          	mov    0x8(%rax),%rax
  400d16:	48 89 45 f8          	mov    %rax,-0x8(%rbp)
  400d1a:	48 83 7d f8 00       	cmpq   $0x0,-0x8(%rbp)
  400d1f:	75 16                	jne    400d37 <Dequeue+0x50>
  400d21:	48 8b 45 e8          	mov    -0x18(%rbp),%rax
  400d25:	48 83 c0 10          	add    $0x10,%rax
  400d29:	48 89 c7             	mov    %rax,%rdi
  400d2c:	e8 cf fa ff ff       	callq  400800 <pthread_mutex_unlock@plt>
  400d31:	48 8b 45 f0          	mov    -0x10(%rbp),%rax
  400d35:	eb 46                	jmp    400d7d <Dequeue+0x96>
  400d37:	48 8b 45 e8          	mov    -0x18(%rbp),%rax
  400d3b:	48 8b 00             	mov    (%rax),%rax
  400d3e:	48 8b 55 f8          	mov    -0x8(%rbp),%rdx
  400d42:	48 8b 52 08          	mov    0x8(%rdx),%rdx
  400d46:	48 89 50 08          	mov    %rdx,0x8(%rax)
  400d4a:	48 8b 45 f8          	mov    -0x8(%rbp),%rax
  400d4e:	48 8b 00             	mov    (%rax),%rax
  400d51:	48 89 45 f0          	mov    %rax,-0x10(%rbp)
  400d55:	48 8b 45 e8          	mov    -0x18(%rbp),%rax
  400d59:	48 83 c0 10          	add    $0x10,%rax
  400d5d:	48 89 c7             	mov    %rax,%rdi
  400d60:	e8 9b fa ff ff       	callq  400800 <pthread_mutex_unlock@plt>
  400d65:	48 8b 45 f8          	mov    -0x8(%rbp),%rax
  400d69:	48 89 c7             	mov    %rax,%rdi
  400d6c:	e8 0f fa ff ff       	callq  400780 <free@plt>
  400d71:	48 c7 45 f8 00 00 00 	movq   $0x0,-0x8(%rbp)
  400d78:	00 
  400d79:	48 8b 45 f0          	mov    -0x10(%rbp),%rax
  400d7d:	c9                   	leaveq 
  400d7e:	c3                   	retq   
  400d7f:	90                   	nop

0000000000400d80 <__libc_csu_init>:
  400d80:	41 57                	push   %r15
  400d82:	41 89 ff             	mov    %edi,%r15d
  400d85:	41 56                	push   %r14
  400d87:	49 89 f6             	mov    %rsi,%r14
  400d8a:	41 55                	push   %r13
  400d8c:	49 89 d5             	mov    %rdx,%r13
  400d8f:	41 54                	push   %r12
  400d91:	4c 8d 25 68 10 20 00 	lea    0x201068(%rip),%r12        # 601e00 <__frame_dummy_init_array_entry>
  400d98:	55                   	push   %rbp
  400d99:	48 8d 2d 68 10 20 00 	lea    0x201068(%rip),%rbp        # 601e08 <__init_array_end>
  400da0:	53                   	push   %rbx
  400da1:	4c 29 e5             	sub    %r12,%rbp
  400da4:	31 db                	xor    %ebx,%ebx
  400da6:	48 c1 fd 03          	sar    $0x3,%rbp
  400daa:	48 83 ec 08          	sub    $0x8,%rsp
  400dae:	e8 95 f9 ff ff       	callq  400748 <_init>
  400db3:	48 85 ed             	test   %rbp,%rbp
  400db6:	74 1e                	je     400dd6 <__libc_csu_init+0x56>
  400db8:	0f 1f 84 00 00 00 00 	nopl   0x0(%rax,%rax,1)
  400dbf:	00 
  400dc0:	4c 89 ea             	mov    %r13,%rdx
  400dc3:	4c 89 f6             	mov    %r14,%rsi
  400dc6:	44 89 ff             	mov    %r15d,%edi
  400dc9:	41 ff 14 dc          	callq  *(%r12,%rbx,8)
  400dcd:	48 83 c3 01          	add    $0x1,%rbx
  400dd1:	48 39 eb             	cmp    %rbp,%rbx
  400dd4:	75 ea                	jne    400dc0 <__libc_csu_init+0x40>
  400dd6:	48 83 c4 08          	add    $0x8,%rsp
  400dda:	5b                   	pop    %rbx
  400ddb:	5d                   	pop    %rbp
  400ddc:	41 5c                	pop    %r12
  400dde:	41 5d                	pop    %r13
  400de0:	41 5e                	pop    %r14
  400de2:	41 5f                	pop    %r15
  400de4:	c3                   	retq   
  400de5:	66 66 2e 0f 1f 84 00 	data32 nopw %cs:0x0(%rax,%rax,1)
  400dec:	00 00 00 00 

0000000000400df0 <__libc_csu_fini>:
  400df0:	f3 c3                	repz retq 

Disassembly of section .fini:

0000000000400df4 <_fini>:
  400df4:	48 83 ec 08          	sub    $0x8,%rsp
  400df8:	48 83 c4 08          	add    $0x8,%rsp
  400dfc:	c3                   	retq   
